target datalayout = "e-m:e-p270:32:32-p271:32:32-p272:64:64-i64:64-i128:128-f80:128-n8:16:32:64-S128"
target triple = "x86_64-pc-linux-gnu"

@.str.6 = private unnamed_addr constant [16 x i8] c"INTERLACE_PIXEL\00", align 1
@.str.7 = private unnamed_addr constant [16 x i8] c"INTERLACE_PLANE\00", align 1
@.str.9 = private unnamed_addr constant [15 x i8] c"INTERLACE_MODE\00", align 1
@.str.10 = private unnamed_addr constant [8 x i8] c"PALETTE\00", align 1

; Function Attrs: nounwind uwtable
define i32 @H5IM_find_palette(i64 noundef %0) #0 {
  %2 = alloca i64, align 8
  store i64 %0, ptr %2, align 8, !tbaa !3
  %3 = load i64, ptr %2, align 8, !tbaa !3
  %4 = call i32 @H5Aiterate2(i64 noundef %3, i32 noundef 0, i32 noundef 0, ptr noundef null, ptr noundef @find_palette, ptr noundef null)
  ret i32 %4
}

; Function Attrs: nounwind uwtable
define i32 @H5IMget_image_info(i64 noundef %0, ptr noundef %1, ptr noundef %2, ptr noundef %3, ptr noundef %4, ptr noundef %5, ptr noundef %6) #0 {
  %8 = alloca i32, align 4
  %9 = alloca i64, align 8
  %10 = alloca ptr, align 8
  %11 = alloca ptr, align 8
  %12 = alloca ptr, align 8
  %13 = alloca ptr, align 8
  %14 = alloca ptr, align 8
  %15 = alloca ptr, align 8
  %16 = alloca i64, align 8
  %17 = alloca i64, align 8
  %18 = alloca [3 x i64], align 16
  %19 = alloca i64, align 8
  %20 = alloca i64, align 8
  %21 = alloca i64, align 8
  %22 = alloca i32, align 4
  %23 = alloca i32, align 4
  %24 = alloca i64, align 8
  %25 = alloca i32, align 4
  store i64 %0, ptr %9, align 8, !tbaa !3
  store ptr %1, ptr %10, align 8, !tbaa !7
  store ptr %2, ptr %11, align 8, !tbaa !17
  store ptr %3, ptr %12, align 8, !tbaa !17
  store ptr %4, ptr %13, align 8, !tbaa !17
  store ptr %5, ptr %14, align 8, !tbaa !7
  store ptr %6, ptr %15, align 8, !tbaa !17
  call void @llvm.lifetime.start.p0(i64 8, ptr %16) #7
  store i64 -1, ptr %16, align 8, !tbaa !3
  call void @llvm.lifetime.start.p0(i64 8, ptr %17) #7
  store i64 -1, ptr %17, align 8, !tbaa !3
  call void @llvm.lifetime.start.p0(i64 24, ptr %18) #7
  call void @llvm.lifetime.start.p0(i64 8, ptr %19) #7
  store i64 -1, ptr %19, align 8, !tbaa !3
  call void @llvm.lifetime.start.p0(i64 8, ptr %20) #7
  store i64 -1, ptr %20, align 8, !tbaa !3
  call void @llvm.lifetime.start.p0(i64 8, ptr %21) #7
  store i64 -1, ptr %21, align 8, !tbaa !3
  call void @llvm.lifetime.start.p0(i64 4, ptr %22) #7
  call void @llvm.lifetime.start.p0(i64 4, ptr %23) #7
  call void @llvm.lifetime.start.p0(i64 8, ptr %24) #7
  %26 = load ptr, ptr %10, align 8, !tbaa !7
  %27 = icmp eq ptr %26, null
  br i1 %27, label %28, label %29

28:                                               ; preds = %7
  store i32 -1, ptr %8, align 4
  store i32 1, ptr %25, align 4
  br label %219

29:                                               ; preds = %7
  %30 = load ptr, ptr %14, align 8, !tbaa !7
  %31 = icmp eq ptr %30, null
  br i1 %31, label %32, label %33

32:                                               ; preds = %29
  store i32 -1, ptr %8, align 4
  store i32 1, ptr %25, align 4
  br label %219

33:                                               ; preds = %29
  %34 = load ptr, ptr %15, align 8, !tbaa !17
  store i64 0, ptr %34, align 8, !tbaa !3
  %35 = load i64, ptr %9, align 8, !tbaa !3
  %36 = load ptr, ptr %10, align 8, !tbaa !7
  %37 = call i64 @H5Dopen2(i64 noundef %35, ptr noundef %36, i64 noundef 0)
  store i64 %37, ptr %16, align 8, !tbaa !3
  %38 = icmp slt i64 %37, 0
  br i1 %38, label %39, label %40

39:                                               ; preds = %33
  store i32 -1, ptr %8, align 4
  store i32 1, ptr %25, align 4
  br label %219

40:                                               ; preds = %33
  %41 = load i64, ptr %16, align 8, !tbaa !3
  %42 = call i32 @H5Aexists(i64 noundef %41, ptr noundef @.str.9)
  %43 = sext i32 %42 to i64
  store i64 %43, ptr %24, align 8, !tbaa !3
  %44 = icmp slt i64 %43, 0
  br i1 %44, label %45, label %46

45:                                               ; preds = %40
  br label %194

46:                                               ; preds = %40
  %47 = load i64, ptr %24, align 8, !tbaa !3
  %48 = icmp sgt i64 %47, 0
  br i1 %48, label %49, label %77

49:                                               ; preds = %46
  %50 = load i64, ptr %16, align 8, !tbaa !3
  %51 = call i64 @H5Aopen(i64 noundef %50, ptr noundef @.str.9, i64 noundef 0)
  store i64 %51, ptr %19, align 8, !tbaa !3
  %52 = icmp slt i64 %51, 0
  br i1 %52, label %53, label %54

53:                                               ; preds = %49
  br label %194

54:                                               ; preds = %49
  %55 = load i64, ptr %19, align 8, !tbaa !3
  %56 = call i64 @H5Aget_type(i64 noundef %55)
  store i64 %56, ptr %21, align 8, !tbaa !3
  %57 = icmp slt i64 %56, 0
  br i1 %57, label %58, label %59

58:                                               ; preds = %54
  br label %194

59:                                               ; preds = %54
  %60 = load i64, ptr %19, align 8, !tbaa !3
  %61 = load i64, ptr %21, align 8, !tbaa !3
  %62 = load ptr, ptr %14, align 8, !tbaa !7
  %63 = call i32 @H5Aread(i64 noundef %60, i64 noundef %61, ptr noundef %62)
  %64 = icmp slt i32 %63, 0
  br i1 %64, label %65, label %66

65:                                               ; preds = %59
  br label %194

66:                                               ; preds = %59
  %67 = load i64, ptr %21, align 8, !tbaa !3
  %68 = call i32 @H5Tclose(i64 noundef %67)
  %69 = icmp slt i32 %68, 0
  br i1 %69, label %70, label %71

70:                                               ; preds = %66
  br label %194

71:                                               ; preds = %66
  %72 = load i64, ptr %19, align 8, !tbaa !3
  %73 = call i32 @H5Aclose(i64 noundef %72)
  %74 = icmp slt i32 %73, 0
  br i1 %74, label %75, label %76

75:                                               ; preds = %71
  br label %194

76:                                               ; preds = %71
  br label %77

77:                                               ; preds = %76, %46
  %78 = load i64, ptr %16, align 8, !tbaa !3
  %79 = call i64 @H5Dget_space(i64 noundef %78)
  store i64 %79, ptr %17, align 8, !tbaa !3
  %80 = icmp slt i64 %79, 0
  br i1 %80, label %81, label %82

81:                                               ; preds = %77
  br label %194

82:                                               ; preds = %77
  %83 = load i64, ptr %17, align 8, !tbaa !3
  %84 = call i32 @H5Sget_simple_extent_dims(i64 noundef %83, ptr noundef null, ptr noundef null)
  %85 = icmp sgt i32 %84, 3
  br i1 %85, label %86, label %87

86:                                               ; preds = %82
  br label %194

87:                                               ; preds = %82
  %88 = load i64, ptr %17, align 8, !tbaa !3
  %89 = getelementptr inbounds [3 x i64], ptr %18, i64 0, i64 0
  %90 = call i32 @H5Sget_simple_extent_dims(i64 noundef %88, ptr noundef %89, ptr noundef null)
  %91 = icmp slt i32 %90, 0
  br i1 %91, label %92, label %93

92:                                               ; preds = %87
  br label %194

93:                                               ; preds = %87
  %94 = load i64, ptr %24, align 8, !tbaa !3
  %95 = icmp sgt i64 %94, 0
  br i1 %95, label %96, label %127

96:                                               ; preds = %93
  %97 = load ptr, ptr %14, align 8, !tbaa !7
  %98 = call i32 @strncmp(ptr noundef %97, ptr noundef @.str.6, i64 noundef 15) #8
  %99 = icmp eq i32 %98, 0
  br i1 %99, label %100, label %110

100:                                              ; preds = %96
  %101 = getelementptr inbounds [3 x i64], ptr %18, i64 0, i64 0
  %102 = load i64, ptr %101, align 16, !tbaa !3
  %103 = load ptr, ptr %12, align 8, !tbaa !17
  store i64 %102, ptr %103, align 8, !tbaa !3
  %104 = getelementptr inbounds [3 x i64], ptr %18, i64 0, i64 1
  %105 = load i64, ptr %104, align 8, !tbaa !3
  %106 = load ptr, ptr %11, align 8, !tbaa !17
  store i64 %105, ptr %106, align 8, !tbaa !3
  %107 = getelementptr inbounds [3 x i64], ptr %18, i64 0, i64 2
  %108 = load i64, ptr %107, align 16, !tbaa !3
  %109 = load ptr, ptr %13, align 8, !tbaa !17
  store i64 %108, ptr %109, align 8, !tbaa !3
  br label %126

110:                                              ; preds = %96
  %111 = load ptr, ptr %14, align 8, !tbaa !7
  %112 = call i32 @strncmp(ptr noundef %111, ptr noundef @.str.7, i64 noundef 15) #8
  %113 = icmp eq i32 %112, 0
  br i1 %113, label %114, label %124

114:                                              ; preds = %110
  %115 = getelementptr inbounds [3 x i64], ptr %18, i64 0, i64 0
  %116 = load i64, ptr %115, align 16, !tbaa !3
  %117 = load ptr, ptr %13, align 8, !tbaa !17
  store i64 %116, ptr %117, align 8, !tbaa !3
  %118 = getelementptr inbounds [3 x i64], ptr %18, i64 0, i64 1
  %119 = load i64, ptr %118, align 8, !tbaa !3
  %120 = load ptr, ptr %12, align 8, !tbaa !17
  store i64 %119, ptr %120, align 8, !tbaa !3
  %121 = getelementptr inbounds [3 x i64], ptr %18, i64 0, i64 2
  %122 = load i64, ptr %121, align 16, !tbaa !3
  %123 = load ptr, ptr %11, align 8, !tbaa !17
  store i64 %122, ptr %123, align 8, !tbaa !3
  br label %125

124:                                              ; preds = %110
  store i32 -1, ptr %8, align 4
  store i32 1, ptr %25, align 4
  br label %219

125:                                              ; preds = %114
  br label %126

126:                                              ; preds = %125, %100
  br label %135

127:                                              ; preds = %93
  %128 = getelementptr inbounds [3 x i64], ptr %18, i64 0, i64 0
  %129 = load i64, ptr %128, align 16, !tbaa !3
  %130 = load ptr, ptr %12, align 8, !tbaa !17
  store i64 %129, ptr %130, align 8, !tbaa !3
  %131 = getelementptr inbounds [3 x i64], ptr %18, i64 0, i64 1
  %132 = load i64, ptr %131, align 8, !tbaa !3
  %133 = load ptr, ptr %11, align 8, !tbaa !17
  store i64 %132, ptr %133, align 8, !tbaa !3
  %134 = load ptr, ptr %13, align 8, !tbaa !17
  store i64 1, ptr %134, align 8, !tbaa !3
  br label %135

135:                                              ; preds = %127, %126
  %136 = load i64, ptr %17, align 8, !tbaa !3
  %137 = call i32 @H5Sclose(i64 noundef %136)
  %138 = icmp slt i32 %137, 0
  br i1 %138, label %139, label %140

139:                                              ; preds = %135
  br label %194

140:                                              ; preds = %135
  %141 = load i64, ptr %16, align 8, !tbaa !3
  %142 = call i32 @H5IM_find_palette(i64 noundef %141)
  store i32 %142, ptr %23, align 4, !tbaa !15
  %143 = load i32, ptr %23, align 4, !tbaa !15
  %144 = icmp eq i32 %143, 1
  br i1 %144, label %145, label %188

145:                                              ; preds = %140
  %146 = load i64, ptr %16, align 8, !tbaa !3
  %147 = call i64 @H5Aopen(i64 noundef %146, ptr noundef @.str.10, i64 noundef 0)
  store i64 %147, ptr %19, align 8, !tbaa !3
  %148 = icmp slt i64 %147, 0
  br i1 %148, label %149, label %150

149:                                              ; preds = %145
  br label %194

150:                                              ; preds = %145
  %151 = load i64, ptr %19, align 8, !tbaa !3
  %152 = call i64 @H5Aget_type(i64 noundef %151)
  store i64 %152, ptr %21, align 8, !tbaa !3
  %153 = icmp slt i64 %152, 0
  br i1 %153, label %154, label %155

154:                                              ; preds = %150
  br label %194

155:                                              ; preds = %150
  %156 = load i64, ptr %21, align 8, !tbaa !3
  %157 = call i32 @H5Tget_class(i64 noundef %156)
  store i32 %157, ptr %22, align 4, !tbaa !15
  %158 = icmp slt i32 %157, 0
  br i1 %158, label %159, label %160

159:                                              ; preds = %155
  br label %194

160:                                              ; preds = %155
  %161 = load i32, ptr %22, align 4, !tbaa !15
  %162 = icmp eq i32 %161, 7
  br i1 %162, label %163, label %177

163:                                              ; preds = %160
  %164 = load i64, ptr %19, align 8, !tbaa !3
  %165 = call i64 @H5Aget_space(i64 noundef %164)
  store i64 %165, ptr %20, align 8, !tbaa !3
  %166 = icmp slt i64 %165, 0
  br i1 %166, label %167, label %168

167:                                              ; preds = %163
  br label %194

168:                                              ; preds = %163
  %169 = load i64, ptr %20, align 8, !tbaa !3
  %170 = call i64 @H5Sget_simple_extent_npoints(i64 noundef %169)
  %171 = load ptr, ptr %15, align 8, !tbaa !17
  store i64 %170, ptr %171, align 8, !tbaa !3
  %172 = load i64, ptr %20, align 8, !tbaa !3
  %173 = call i32 @H5Sclose(i64 noundef %172)
  %174 = icmp slt i32 %173, 0
  br i1 %174, label %175, label %176

175:                                              ; preds = %168
  br label %194

176:                                              ; preds = %168
  br label %177

177:                                              ; preds = %176, %160
  %178 = load i64, ptr %21, align 8, !tbaa !3
  %179 = call i32 @H5Tclose(i64 noundef %178)
  %180 = icmp slt i32 %179, 0
  br i1 %180, label %181, label %182

181:                                              ; preds = %177
  br label %194

182:                                              ; preds = %177
  %183 = load i64, ptr %19, align 8, !tbaa !3
  %184 = call i32 @H5Aclose(i64 noundef %183)
  %185 = icmp slt i32 %184, 0
  br i1 %185, label %186, label %187

186:                                              ; preds = %182
  br label %194

187:                                              ; preds = %182
  br label %188

188:                                              ; preds = %187, %140
  %189 = load i64, ptr %16, align 8, !tbaa !3
  %190 = call i32 @H5Dclose(i64 noundef %189)
  %191 = icmp slt i32 %190, 0
  br i1 %191, label %192, label %193

192:                                              ; preds = %188
  br label %194

193:                                              ; preds = %188
  store i32 0, ptr %8, align 4
  store i32 1, ptr %25, align 4
  br label %219

194:                                              ; preds = %192, %186, %181, %175, %167, %159, %154, %149, %139, %92, %86, %81, %75, %70, %65, %58, %53, %45
  %195 = load i64, ptr %16, align 8, !tbaa !3
  %196 = icmp sgt i64 %195, 0
  br i1 %196, label %197, label %200

197:                                              ; preds = %194
  %198 = load i64, ptr %16, align 8, !tbaa !3
  %199 = call i32 @H5Dclose(i64 noundef %198)
  br label %200

200:                                              ; preds = %197, %194
  %201 = load i64, ptr %19, align 8, !tbaa !3
  %202 = icmp sgt i64 %201, 0
  br i1 %202, label %203, label %206

203:                                              ; preds = %200
  %204 = load i64, ptr %19, align 8, !tbaa !3
  %205 = call i32 @H5Aclose(i64 noundef %204)
  br label %206

206:                                              ; preds = %203, %200
  %207 = load i64, ptr %20, align 8, !tbaa !3
  %208 = icmp sgt i64 %207, 0
  br i1 %208, label %209, label %212

209:                                              ; preds = %206
  %210 = load i64, ptr %20, align 8, !tbaa !3
  %211 = call i32 @H5Sclose(i64 noundef %210)
  br label %212

212:                                              ; preds = %209, %206
  %213 = load i64, ptr %21, align 8, !tbaa !3
  %214 = icmp sgt i64 %213, 0
  br i1 %214, label %215, label %218

215:                                              ; preds = %212
  %216 = load i64, ptr %21, align 8, !tbaa !3
  %217 = call i32 @H5Tclose(i64 noundef %216)
  br label %218

218:                                              ; preds = %215, %212
  store i32 -1, ptr %8, align 4
  store i32 1, ptr %25, align 4
  br label %219

219:                                              ; preds = %218, %193, %124, %39, %32, %28
  call void @llvm.lifetime.end.p0(i64 8, ptr %24) #7
  call void @llvm.lifetime.end.p0(i64 4, ptr %23) #7
  call void @llvm.lifetime.end.p0(i64 4, ptr %22) #7
  call void @llvm.lifetime.end.p0(i64 8, ptr %21) #7
  call void @llvm.lifetime.end.p0(i64 8, ptr %20) #7
  call void @llvm.lifetime.end.p0(i64 8, ptr %19) #7
  call void @llvm.lifetime.end.p0(i64 24, ptr %18) #7
  call void @llvm.lifetime.end.p0(i64 8, ptr %17) #7
  call void @llvm.lifetime.end.p0(i64 8, ptr %16) #7
  %220 = load i32, ptr %8, align 4
  ret i32 %220
}