; Function Attrs: nounwind uwtable
define range(i32 -1, 1) i32 @H5IMget_image_info(i64 noundef %0, ptr noundef %1, ptr noundef writeonly captures(none) %2, ptr noundef writeonly captures(none) %3, ptr noundef writeonly captures(none) %4, ptr noundef %5, ptr noundef writeonly captures(none) %6) local_unnamed_addr #0 {
  %8 = alloca [3 x i64], align 16
  call void @llvm.lifetime.start.p0(i64 24, ptr nonnull %8) #8
  %9 = icmp eq ptr %1, null
  %10 = icmp eq ptr %5, null
  %or.cond = or i1 %9, %10
  br i1 %or.cond, label %113, label %11

11:                                               ; preds = %7
  store i64 0, ptr %6, align 8, !tbaa !3
  %12 = tail call i64 @H5Dopen2(i64 noundef %0, ptr noundef nonnull %1, i64 noundef 0) #8
  %13 = icmp slt i64 %12, 0
  br i1 %13, label %113, label %14

14:                                               ; preds = %11
  %15 = tail call i32 @H5Aexists(i64 noundef %12, ptr noundef nonnull @.str.9) #8
  %16 = icmp slt i32 %15, 0
  br i1 %16, label %98, label %17

17:                                               ; preds = %14
  %.not = icmp eq i32 %15, 0
  br i1 %.not, label %33, label %18

18:                                               ; preds = %17
  %19 = tail call i64 @H5Aopen(i64 noundef %12, ptr noundef nonnull @.str.9, i64 noundef 0) #8
  %20 = icmp slt i64 %19, 0
  br i1 %20, label %98, label %21

21:                                               ; preds = %18
  %22 = tail call i64 @H5Aget_type(i64 noundef %19) #8
  %23 = icmp slt i64 %22, 0
  br i1 %23, label %98, label %24

24:                                               ; preds = %21
  %25 = tail call i32 @H5Aread(i64 noundef %19, i64 noundef %22, ptr noundef nonnull %5) #8
  %26 = icmp slt i32 %25, 0
  br i1 %26, label %98, label %27

27:                                               ; preds = %24
  %28 = tail call i32 @H5Tclose(i64 noundef %22) #8
  %29 = icmp slt i32 %28, 0
  br i1 %29, label %98, label %30

30:                                               ; preds = %27
  %31 = tail call i32 @H5Aclose(i64 noundef %19) #8
  %32 = icmp slt i32 %31, 0
  br i1 %32, label %98, label %33

33:                                               ; preds = %30, %17
  %.156 = phi i64 [ %19, %30 ], [ -1, %17 ]
  %.1 = phi i64 [ %22, %30 ], [ -1, %17 ]
  %34 = tail call i64 @H5Dget_space(i64 noundef %12) #8
  %35 = icmp slt i64 %34, 0
  br i1 %35, label %98, label %36

36:                                               ; preds = %33
  %37 = tail call i32 @H5Sget_simple_extent_dims(i64 noundef %34, ptr noundef null, ptr noundef null) #8
  %38 = icmp sgt i32 %37, 3
  br i1 %38, label %98, label %39

39:                                               ; preds = %36
  %40 = call i32 @H5Sget_simple_extent_dims(i64 noundef %34, ptr noundef nonnull %8, ptr noundef null) #8
  %41 = icmp slt i32 %40, 0
  br i1 %41, label %98, label %42

42:                                               ; preds = %39
  br i1 %.not, label %61, label %43

43:                                               ; preds = %42
  %44 = call i32 @strncmp(ptr noundef nonnull dereferenceable(1) %5, ptr noundef nonnull dereferenceable(16) @.str.6, i64 noundef 15) #9
  %45 = icmp eq i32 %44, 0
  br i1 %45, label %46, label %52

46:                                               ; preds = %43
  %47 = load i64, ptr %8, align 16, !tbaa !3
  store i64 %47, ptr %3, align 8, !tbaa !3
  %48 = getelementptr inbounds nuw i8, ptr %8, i64 8
  %49 = load i64, ptr %48, align 8, !tbaa !3
  store i64 %49, ptr %2, align 8, !tbaa !3
  %50 = getelementptr inbounds nuw i8, ptr %8, i64 16
  %51 = load i64, ptr %50, align 16, !tbaa !3
  store i64 %51, ptr %4, align 8, !tbaa !3
  br label %65

52:                                               ; preds = %43
  %53 = call i32 @strncmp(ptr noundef nonnull dereferenceable(1) %5, ptr noundef nonnull dereferenceable(16) @.str.7, i64 noundef 15) #9
  %54 = icmp eq i32 %53, 0
  br i1 %54, label %55, label %113

55:                                               ; preds = %52
  %56 = load i64, ptr %8, align 16, !tbaa !3
  store i64 %56, ptr %4, align 8, !tbaa !3
  %57 = getelementptr inbounds nuw i8, ptr %8, i64 8
  %58 = load i64, ptr %57, align 8, !tbaa !3
  store i64 %58, ptr %3, align 8, !tbaa !3
  %59 = getelementptr inbounds nuw i8, ptr %8, i64 16
  %60 = load i64, ptr %59, align 16, !tbaa !3
  store i64 %60, ptr %2, align 8, !tbaa !3
  br label %65

61:                                               ; preds = %42
  %62 = load i64, ptr %8, align 16, !tbaa !3
  store i64 %62, ptr %3, align 8, !tbaa !3
  %63 = getelementptr inbounds nuw i8, ptr %8, i64 8
  %64 = load i64, ptr %63, align 8, !tbaa !3
  store i64 %64, ptr %2, align 8, !tbaa !3
  store i64 1, ptr %4, align 8, !tbaa !3
  br label %65

65:                                               ; preds = %46, %55, %61
  %66 = call i32 @H5Sclose(i64 noundef %34) #8
  %67 = icmp slt i32 %66, 0
  br i1 %67, label %98, label %68

68:                                               ; preds = %65
  %69 = call i32 @H5Aiterate2(i64 noundef %12, i32 noundef 0, i32 noundef 0, ptr noundef null, ptr noundef nonnull @find_palette, ptr noundef null) #8
  %70 = icmp eq i32 %69, 1
  br i1 %70, label %71, label %95

71:                                               ; preds = %68
  %72 = call i64 @H5Aopen(i64 noundef %12, ptr noundef nonnull @.str.10, i64 noundef 0) #8
  %73 = icmp slt i64 %72, 0
  br i1 %73, label %98, label %74

74:                                               ; preds = %71
  %75 = call i64 @H5Aget_type(i64 noundef %72) #8
  %76 = icmp slt i64 %75, 0
  br i1 %76, label %98, label %77

77:                                               ; preds = %74
  %78 = call i32 @H5Tget_class(i64 noundef %75) #8
  %79 = icmp slt i32 %78, 0
  br i1 %79, label %98, label %80

80:                                               ; preds = %77
  %81 = icmp eq i32 %78, 7
  br i1 %81, label %82, label %89

82:                                               ; preds = %80
  %83 = call i64 @H5Aget_space(i64 noundef %72) #8
  %84 = icmp slt i64 %83, 0
  br i1 %84, label %98, label %85

85:                                               ; preds = %82
  %86 = call i64 @H5Sget_simple_extent_npoints(i64 noundef %83) #8
  store i64 %86, ptr %6, align 8, !tbaa !3
  %87 = call i32 @H5Sclose(i64 noundef %83) #8
  %88 = icmp slt i32 %87, 0
  br i1 %88, label %98, label %89

89:                                               ; preds = %85, %80
  %.254 = phi i64 [ %83, %85 ], [ -1, %80 ]
  %90 = call i32 @H5Tclose(i64 noundef %75) #8
  %91 = icmp slt i32 %90, 0
  br i1 %91, label %98, label %92

92:                                               ; preds = %89
  %93 = call i32 @H5Aclose(i64 noundef %72) #8
  %94 = icmp slt i32 %93, 0
  br i1 %94, label %98, label %95

95:                                               ; preds = %92, %68
  %.257 = phi i64 [ %72, %92 ], [ %.156, %68 ]
  %.153 = phi i64 [ %.254, %92 ], [ -1, %68 ]
  %.2 = phi i64 [ %75, %92 ], [ %.1, %68 ]
  %96 = call i32 @H5Dclose(i64 noundef %12) #8
  %97 = icmp slt i32 %96, 0
  br i1 %97, label %98, label %113

98:                                               ; preds = %95, %92, %89, %85, %82, %77, %74, %71, %65, %39, %36, %33, %30, %27, %24, %21, %18, %14
  %.055 = phi i64 [ -1, %14 ], [ %19, %18 ], [ %19, %21 ], [ %19, %24 ], [ %19, %27 ], [ %19, %30 ], [ %.156, %33 ], [ %.156, %36 ], [ %.156, %39 ], [ %.156, %65 ], [ %72, %71 ], [ %72, %74 ], [ %72, %77 ], [ %72, %82 ], [ %72, %85 ], [ %72, %89 ], [ %72, %92 ], [ %.257, %95 ]
  %.052 = phi i64 [ -1, %14 ], [ -1, %18 ], [ -1, %21 ], [ -1, %24 ], [ -1, %27 ], [ -1, %30 ], [ -1, %33 ], [ -1, %36 ], [ -1, %39 ], [ -1, %65 ], [ -1, %71 ], [ -1, %74 ], [ -1, %77 ], [ %83, %82 ], [ %83, %85 ], [ %.254, %89 ], [ %.254, %92 ], [ %.153, %95 ]
  %.051 = phi i64 [ -1, %14 ], [ -1, %18 ], [ %22, %21 ], [ %22, %24 ], [ %22, %27 ], [ %22, %30 ], [ %.1, %33 ], [ %.1, %36 ], [ %.1, %39 ], [ %.1, %65 ], [ %.1, %71 ], [ %75, %74 ], [ %75, %77 ], [ %75, %82 ], [ %75, %85 ], [ %75, %89 ], [ %75, %92 ], [ %.2, %95 ]
  %.not74 = icmp eq i64 %12, 0
  br i1 %.not74, label %101, label %99

99:                                               ; preds = %98
  %100 = call i32 @H5Dclose(i64 noundef %12) #8
  br label %101

101:                                              ; preds = %99, %98
  %102 = icmp sgt i64 %.055, 0
  br i1 %102, label %103, label %105

103:                                              ; preds = %101
  %104 = call i32 @H5Aclose(i64 noundef %.055) #8
  br label %105

105:                                              ; preds = %103, %101
  %106 = icmp sgt i64 %.052, 0
  br i1 %106, label %107, label %109

107:                                              ; preds = %105
  %108 = call i32 @H5Sclose(i64 noundef %.052) #8
  br label %109

109:                                              ; preds = %107, %105
  %110 = icmp sgt i64 %.051, 0
  br i1 %110, label %111, label %113

111:                                              ; preds = %109
  %112 = call i32 @H5Tclose(i64 noundef %.051) #8
  br label %113

113:                                              ; preds = %109, %111, %95, %52, %11, %7
  %.0 = phi i32 [ -1, %7 ], [ -1, %11 ], [ -1, %52 ], [ 0, %95 ], [ -1, %111 ], [ -1, %109 ]
  call void @llvm.lifetime.end.p0(i64 24, ptr nonnull %8) #8
  ret i32 %.0
}